; Function Attrs: mustprogress uwtable
define noundef zeroext i1 @_ZN32pxrInternal_v0_24__pxrReserved__13UsdReferences12AddReferenceERKNSt7__cxx1112basic_stringIcSt11char_traitsIcESaIcEEERKNS_14SdfLayerOffsetENS_15UsdListPositionE(ptr noundef nonnull align 8 dereferenceable(32) %0, ptr noundef nonnull align 8 dereferenceable(32) %1, ptr noundef nonnull align 8 dereferenceable(16) %2, i32 noundef %3) local_unnamed_addr #0 align 2 personality ptr @__gxx_personality_v0 {
  %5 = alloca %"class.pxrInternal_v0_24__pxrReserved__::SdfReference", align 8
  %6 = alloca %"class.pxrInternal_v0_24__pxrReserved__::SdfPath", align 8
  %7 = alloca %"class.pxrInternal_v0_24__pxrReserved__::VtDictionary", align 8
  store i64 0, ptr %6, align 8
  store ptr null, ptr %7, align 8
  invoke void @_ZN32pxrInternal_v0_24__pxrReserved__12SdfReferenceC1ERKNSt7__cxx1112basic_stringIcSt11char_traitsIcESaIcEEERKNS_7SdfPathERKNS_14SdfLayerOffsetERKNS_12VtDictionaryE(ptr noundef nonnull align 8 dereferenceable(64) %5, ptr noundef nonnull align 8 dereferenceable(32) %1, ptr noundef nonnull align 4 dereferenceable(8) %6, ptr noundef nonnull align 8 dereferenceable(16) %2, ptr noundef nonnull align 8 dereferenceable(8) %7)
          to label %8 unwind label %35

8:                                                ; preds = %4
  %9 = load ptr, ptr %7, align 8
  %.not.i.i = icmp eq ptr %9, null
  br i1 %.not.i.i, label %_ZN32pxrInternal_v0_24__pxrReserved__12VtDictionaryD2Ev.exit, label %10

10:                                               ; preds = %8
  %11 = getelementptr inbounds i8, ptr %9, i64 16
  %12 = load ptr, ptr %11, align 8
  invoke void @_ZNSt8_Rb_treeINSt7__cxx1112basic_stringIcSt11char_traitsIcESaIcEEESt4pairIKS5_N32pxrInternal_v0_24__pxrReserved__7VtValueEESt10_Select1stISA_ESt4lessIvESaISA_EE8_M_eraseEPSt13_Rb_tree_nodeISA_E(ptr noundef nonnull align 8 dereferenceable(48) %9, ptr noundef %12)
          to label %_ZNKSt14default_deleteISt3mapINSt7__cxx1112basic_stringIcSt11char_traitsIcESaIcEEEN32pxrInternal_v0_24__pxrReserved__7VtValueESt4lessIvESaISt4pairIKS6_S8_EEEEclEPSF_.exit.i.i unwind label %13

13:                                               ; preds = %10
  %14 = landingpad { ptr, i32 }
          catch ptr null
  %15 = extractvalue { ptr, i32 } %14, 0
  call void @__clang_call_terminate(ptr %15) #17
  unreachable

_ZNKSt14default_deleteISt3mapINSt7__cxx1112basic_stringIcSt11char_traitsIcESaIcEEEN32pxrInternal_v0_24__pxrReserved__7VtValueESt4lessIvESaISt4pairIKS6_S8_EEEEclEPSF_.exit.i.i: ; preds = %10
  call void @_ZdlPvm(ptr noundef nonnull %9, i64 noundef 48) #18
  br label %_ZN32pxrInternal_v0_24__pxrReserved__12VtDictionaryD2Ev.exit

_ZN32pxrInternal_v0_24__pxrReserved__12VtDictionaryD2Ev.exit: ; preds = %8, %_ZNKSt14default_deleteISt3mapINSt7__cxx1112basic_stringIcSt11char_traitsIcESaIcEEEN32pxrInternal_v0_24__pxrReserved__7VtValueESt4lessIvESaISt4pairIKS6_S8_EEEEclEPSF_.exit.i.i
  store ptr null, ptr %7, align 8
  %16 = load i32, ptr %6, align 8
  %.not.i.i7 = icmp eq i32 %16, 0
  br i1 %.not.i.i7, label %_ZN32pxrInternal_v0_24__pxrReserved__7SdfPathD2Ev.exit, label %17

17:                                               ; preds = %_ZN32pxrInternal_v0_24__pxrReserved__12VtDictionaryD2Ev.exit
  %18 = and i32 %16, 255
  %19 = lshr i32 %16, 8
  %20 = zext nneg i32 %18 to i64
  %21 = getelementptr inbounds [257 x ptr], ptr @_ZN32pxrInternal_v0_24__pxrReserved__8Sdf_PoolINS_15Sdf_PathPrimTagELj24ELj8ELj16384EE13_regionStartsE, i64 0, i64 %20
  %22 = load ptr, ptr %21, align 8
  %23 = mul nuw nsw i32 %19, 24
  %24 = zext nneg i32 %23 to i64
  %25 = getelementptr inbounds i8, ptr %22, i64 %24
  %26 = getelementptr inbounds nuw i8, ptr %25, i64 8
  %27 = atomicrmw sub ptr %26, i32 1 seq_cst, align 4
  %28 = and i32 %27, 2147483647
  %29 = icmp eq i32 %28, 1
  br i1 %29, label %30, label %_ZN32pxrInternal_v0_24__pxrReserved__7SdfPathD2Ev.exit

30:                                               ; preds = %17
  invoke void @_ZNK32pxrInternal_v0_24__pxrReserved__12Sdf_PathNode8_DestroyEv(ptr noundef nonnull align 8 dereferenceable(16) %25)
          to label %_ZN32pxrInternal_v0_24__pxrReserved__7SdfPathD2Ev.exit unwind label %31

31:                                               ; preds = %30
  %32 = landingpad { ptr, i32 }
          catch ptr null
  %33 = extractvalue { ptr, i32 } %32, 0
  call void @__clang_call_terminate(ptr %33) #17
  unreachable

_ZN32pxrInternal_v0_24__pxrReserved__7SdfPathD2Ev.exit: ; preds = %_ZN32pxrInternal_v0_24__pxrReserved__12VtDictionaryD2Ev.exit, %17, %30
  %34 = invoke noundef zeroext i1 @_ZN32pxrInternal_v0_24__pxrReserved__16Usd_ListEditImplINS_13UsdReferencesENS_18SdfListEditorProxyINS_22SdfReferenceTypePolicyEEEE3AddERKS1_RKNS_12SdfReferenceENS_15UsdListPositionE(ptr noundef nonnull align 8 dereferenceable(32) %0, ptr noundef nonnull align 8 dereferenceable(64) %5, i32 noundef %3)
          to label %_ZN32pxrInternal_v0_24__pxrReserved__13UsdReferences12AddReferenceERKNS_12SdfReferenceENS_15UsdListPositionE.exit unwind label %37

_ZN32pxrInternal_v0_24__pxrReserved__13UsdReferences12AddReferenceERKNS_12SdfReferenceENS_15UsdListPositionE.exit: ; preds = %_ZN32pxrInternal_v0_24__pxrReserved__7SdfPathD2Ev.exit
  call void @_ZN32pxrInternal_v0_24__pxrReserved__12SdfReferenceD2Ev(ptr noundef nonnull align 8 dereferenceable(64) %5) #15
  ret i1 %34

35:                                               ; preds = %4
  %36 = landingpad { ptr, i32 }
          cleanup
  call void @_ZN32pxrInternal_v0_24__pxrReserved__12VtDictionaryD2Ev(ptr noundef nonnull align 8 dereferenceable(8) %7) #15
  call void @_ZN32pxrInternal_v0_24__pxrReserved__7SdfPathD2Ev(ptr noundef nonnull align 4 dereferenceable(8) %6) #15
  br label %39

37:                                               ; preds = %_ZN32pxrInternal_v0_24__pxrReserved__7SdfPathD2Ev.exit
  %38 = landingpad { ptr, i32 }
          cleanup
  call void @_ZN32pxrInternal_v0_24__pxrReserved__12SdfReferenceD2Ev(ptr noundef nonnull align 8 dereferenceable(64) %5) #15
  br label %39

39:                                               ; preds = %37, %35
  %.pn = phi { ptr, i32 } [ %38, %37 ], [ %36, %35 ]
  resume { ptr, i32 } %.pn
}